target datalayout = "e-m:e-p270:32:32-p271:32:32-p272:64:64-i64:64-i128:128-f80:128-n8:16:32:64-S128"
target triple = "x86_64-pc-linux-gnu"

%"class.std::__cxx11::basic_string" = type { %"struct.std::__cxx11::basic_string<char>::_Alloc_hider", i64, %union.anon }
%"struct.std::__cxx11::basic_string<char>::_Alloc_hider" = type { ptr }
%union.anon = type { i64, [8 x i8] }
%class.Variable = type { ptr, %"class.std::vector.18", %"class.std::__cxx11::basic_string", ptr, ptr, i8, i8, i8, i8, i8, i8, ptr, i8, %class.CVQualifiers }
%"class.std::vector.18" = type { %"struct.std::_Vector_base.19" }
%"struct.std::_Vector_base.19" = type { %"struct.std::_Vector_base<Variable *, std::allocator<Variable *>>::_Vector_impl" }
%"struct.std::_Vector_base<Variable *, std::allocator<Variable *>>::_Vector_impl" = type { %"struct.std::_Vector_base<Variable *, std::allocator<Variable *>>::_Vector_impl_data" }
%"struct.std::_Vector_base<Variable *, std::allocator<Variable *>>::_Vector_impl_data" = type { ptr, ptr, ptr }
%class.CVQualifiers = type { ptr, i8, i8, %"class.std::vector.23", %"class.std::vector.23" }
%"class.std::vector.23" = type { %"struct.std::_Bvector_base" }
%"struct.std::_Bvector_base" = type { %"struct.std::_Bvector_base<std::allocator<bool>>::_Bvector_impl" }
%"struct.std::_Bvector_base<std::allocator<bool>>::_Bvector_impl" = type { %"struct.std::_Bvector_base<std::allocator<bool>>::_Bvector_impl_data" }
%"struct.std::_Bvector_base<std::allocator<bool>>::_Bvector_impl_data" = type { %"struct.std::_Bit_iterator", %"struct.std::_Bit_iterator", ptr }
%"struct.std::_Bit_iterator" = type { %"struct.std::_Bit_iterator_base.base", [4 x i8] }
%"struct.std::_Bit_iterator_base.base" = type <{ ptr, i32 }>
%class.Type = type { i32, ptr, i32, %"class.std::vector.28", %"class.std::vector.33", i32, i8, i8, i8, i8, i8, %"class.std::vector.38", %"class.std::vector.43" }
%"class.std::vector.28" = type { %"struct.std::_Vector_base.29" }
%"struct.std::_Vector_base.29" = type { %"struct.std::_Vector_base<unsigned int, std::allocator<unsigned int>>::_Vector_impl" }
%"struct.std::_Vector_base<unsigned int, std::allocator<unsigned int>>::_Vector_impl" = type { %"struct.std::_Vector_base<unsigned int, std::allocator<unsigned int>>::_Vector_impl_data" }
%"struct.std::_Vector_base<unsigned int, std::allocator<unsigned int>>::_Vector_impl_data" = type { ptr, ptr, ptr }
%"class.std::vector.33" = type { %"struct.std::_Vector_base.34" }
%"struct.std::_Vector_base.34" = type { %"struct.std::_Vector_base<const Type *, std::allocator<const Type *>>::_Vector_impl" }
%"struct.std::_Vector_base<const Type *, std::allocator<const Type *>>::_Vector_impl" = type { %"struct.std::_Vector_base<const Type *, std::allocator<const Type *>>::_Vector_impl_data" }
%"struct.std::_Vector_base<const Type *, std::allocator<const Type *>>::_Vector_impl_data" = type { ptr, ptr, ptr }
%"class.std::vector.38" = type { %"struct.std::_Vector_base.39" }
%"struct.std::_Vector_base.39" = type { %"struct.std::_Vector_base<CVQualifiers, std::allocator<CVQualifiers>>::_Vector_impl" }
%"struct.std::_Vector_base<CVQualifiers, std::allocator<CVQualifiers>>::_Vector_impl" = type { %"struct.std::_Vector_base<CVQualifiers, std::allocator<CVQualifiers>>::_Vector_impl_data" }
%"struct.std::_Vector_base<CVQualifiers, std::allocator<CVQualifiers>>::_Vector_impl_data" = type { ptr, ptr, ptr }
%"class.std::vector.43" = type { %"struct.std::_Vector_base.44" }
%"struct.std::_Vector_base.44" = type { %"struct.std::_Vector_base<int, std::allocator<int>>::_Vector_impl" }
%"struct.std::_Vector_base<int, std::allocator<int>>::_Vector_impl" = type { %"struct.std::_Vector_base<int, std::allocator<int>>::_Vector_impl_data" }
%"struct.std::_Vector_base<int, std::allocator<int>>::_Vector_impl_data" = type { ptr, ptr, ptr }

; Function Attrs: mustprogress uwtable
define dso_local noundef zeroext i1 @_ZNK8Variable13has_field_varEPKS_(ptr noundef nonnull align 8 dereferenceable(200) %0, ptr noundef %1) #6 align 2 {
  %3 = alloca i1, align 1
  %4 = alloca ptr, align 8
  %5 = alloca ptr, align 8
  %6 = alloca ptr, align 8
  %7 = alloca i32, align 4
  store ptr %0, ptr %4, align 8, !tbaa !40
  store ptr %1, ptr %5, align 8, !tbaa !40
  %8 = load ptr, ptr %4, align 8
  %9 = getelementptr inbounds nuw %class.Variable, ptr %8, i32 0, i32 3
  %10 = load ptr, ptr %9, align 8, !tbaa !49
  %11 = call noundef zeroext i1 @_ZNK4Type12is_aggregateEv(ptr noundef nonnull align 8 dereferenceable(136) %10)
  br i1 %11, label %12, label %29

12:                                               ; preds = %2
  call void @llvm.lifetime.start.p0(i64 8, ptr %6) #3
  %13 = load ptr, ptr %5, align 8, !tbaa !40
  store ptr %13, ptr %6, align 8, !tbaa !40
  br label %14

14:                                               ; preds = %21, %12
  %15 = load ptr, ptr %6, align 8, !tbaa !40
  %16 = icmp ne ptr %15, null
  br i1 %16, label %17, label %25

17:                                               ; preds = %14
  %18 = load ptr, ptr %6, align 8, !tbaa !40
  %19 = icmp eq ptr %18, %8
  br i1 %19, label %20, label %21

20:                                               ; preds = %17
  store i1 true, ptr %3, align 1
  store i32 1, ptr %7, align 4
  br label %26

21:                                               ; preds = %17
  %22 = load ptr, ptr %6, align 8, !tbaa !40
  %23 = getelementptr inbounds nuw %class.Variable, ptr %22, i32 0, i32 11
  %24 = load ptr, ptr %23, align 8, !tbaa !86
  store ptr %24, ptr %6, align 8, !tbaa !40
  br label %14, !llvm.loop !124

25:                                               ; preds = %14
  store i32 0, ptr %7, align 4
  br label %26

26:                                               ; preds = %25, %20
  call void @llvm.lifetime.end.p0(i64 8, ptr %6) #3
  %27 = load i32, ptr %7, align 4
  switch i32 %27, label %32 [
    i32 0, label %28
    i32 1, label %30
  ]

28:                                               ; preds = %26
  br label %29

29:                                               ; preds = %28, %2
  store i1 false, ptr %3, align 1
  br label %30

30:                                               ; preds = %29, %26
  %31 = load i1, ptr %3, align 1
  ret i1 %31

32:                                               ; preds = %26
  unreachable
}

; Function Attrs: mustprogress nounwind uwtable
define linkonce_odr dso_local noundef zeroext i1 @_ZNK4Type12is_aggregateEv(ptr noundef nonnull align 8 dereferenceable(136) %0) #4 comdat align 2 {
  %2 = alloca ptr, align 8
  store ptr %0, ptr %2, align 8, !tbaa !123
  %3 = load ptr, ptr %2, align 8
  %4 = getelementptr inbounds nuw %class.Type, ptr %3, i32 0, i32 0
  %5 = load i32, ptr %4, align 8, !tbaa !97
  %6 = icmp eq i32 %5, 3
  br i1 %6, label %11, label %7

7:                                                ; preds = %1
  %8 = getelementptr inbounds nuw %class.Type, ptr %3, i32 0, i32 0
  %9 = load i32, ptr %8, align 8, !tbaa !97
  %10 = icmp eq i32 %9, 2
  br label %11

11:                                               ; preds = %7, %1
  %12 = phi i1 [ true, %1 ], [ %10, %7 ]
  ret i1 %12
}

; Function Attrs: mustprogress nounwind uwtable
define dso_local noundef ptr @_ZNK8Variable19get_container_unionEv(ptr noundef nonnull align 8 dereferenceable(200) %0) #4 align 2 {
  %2 = alloca ptr, align 8
  %3 = alloca ptr, align 8
  %4 = alloca ptr, align 8
  store ptr %0, ptr %3, align 8, !tbaa !40
  %5 = load ptr, ptr %3, align 8
  %6 = getelementptr inbounds nuw %class.Variable, ptr %5, i32 0, i32 3
  %7 = load ptr, ptr %6, align 8, !tbaa !49
  %8 = icmp eq ptr %7, null
  br i1 %8, label %9, label %10

9:                                                ; preds = %1
  store ptr null, ptr %2, align 8
  br label %30

10:                                               ; preds = %1
  call void @llvm.lifetime.start.p0(i64 8, ptr %4) #3
  store ptr %5, ptr %4, align 8, !tbaa !40
  br label %11

11:                                               ; preds = %24, %10
  %12 = load ptr, ptr %4, align 8, !tbaa !40
  %13 = icmp ne ptr %12, null
  br i1 %13, label %14, label %21

14:                                               ; preds = %11
  %15 = load ptr, ptr %4, align 8, !tbaa !40
  %16 = getelementptr inbounds nuw %class.Variable, ptr %15, i32 0, i32 3
  %17 = load ptr, ptr %16, align 8, !tbaa !49
  %18 = getelementptr inbounds nuw %class.Type, ptr %17, i32 0, i32 0
  %19 = load i32, ptr %18, align 8, !tbaa !97
  %20 = icmp ne i32 %19, 2
  br label %21

21:                                               ; preds = %14, %11
  %22 = phi i1 [ false, %11 ], [ %20, %14 ]
  br i1 %22, label %23, label %28

23:                                               ; preds = %21
  br label %24

24:                                               ; preds = %23
  %25 = load ptr, ptr %4, align 8, !tbaa !40
  %26 = getelementptr inbounds nuw %class.Variable, ptr %25, i32 0, i32 11
  %27 = load ptr, ptr %26, align 8, !tbaa !86
  store ptr %27, ptr %4, align 8, !tbaa !40
  br label %11, !llvm.loop !120

28:                                               ; preds = %21
  %29 = load ptr, ptr %4, align 8, !tbaa !40
  store ptr %29, ptr %2, align 8
  call void @llvm.lifetime.end.p0(i64 8, ptr %4) #3
  br label %30

30:                                               ; preds = %28, %9
  %31 = load ptr, ptr %2, align 8
  ret ptr %31
}

; Function Attrs: mustprogress uwtable
define dso_local noundef zeroext i1 @_ZNK8Variable5matchEPKS_(ptr noundef nonnull align 8 dereferenceable(200) %0, ptr noundef %1) #6 align 2 {
  %3 = alloca i1, align 1
  %4 = alloca ptr, align 8
  %5 = alloca ptr, align 8
  store ptr %0, ptr %4, align 8, !tbaa !40
  store ptr %1, ptr %5, align 8, !tbaa !40
  %6 = load ptr, ptr %4, align 8
  %7 = getelementptr inbounds nuw %class.Variable, ptr %6, i32 0, i32 3
  %8 = load ptr, ptr %7, align 8, !tbaa !49
  %9 = icmp ne ptr %8, null
  br i1 %9, label %10, label %27

10:                                               ; preds = %2
  %11 = load ptr, ptr %5, align 8, !tbaa !40
  %12 = getelementptr inbounds nuw %class.Variable, ptr %11, i32 0, i32 3
  %13 = load ptr, ptr %12, align 8, !tbaa !49
  %14 = icmp ne ptr %13, null
  br i1 %14, label %15, label %27

15:                                               ; preds = %10
  %16 = getelementptr inbounds nuw %class.Variable, ptr %6, i32 0, i32 3
  %17 = load ptr, ptr %16, align 8, !tbaa !49
  %18 = call noundef zeroext i1 @_ZNK4Type12is_aggregateEv(ptr noundef nonnull align 8 dereferenceable(136) %17)
  br i1 %18, label %19, label %27

19:                                               ; preds = %15
  %20 = load ptr, ptr %5, align 8, !tbaa !40
  %21 = icmp eq ptr %6, %20
  br i1 %21, label %25, label %22

22:                                               ; preds = %19
  %23 = load ptr, ptr %5, align 8, !tbaa !40
  %24 = call noundef zeroext i1 @_ZNK8Variable13has_field_varEPKS_(ptr noundef nonnull align 8 dereferenceable(200) %6, ptr noundef %23)
  br label %25

25:                                               ; preds = %22, %19
  %26 = phi i1 [ true, %19 ], [ %24, %22 ]
  store i1 %26, ptr %3, align 1
  br label %30

27:                                               ; preds = %15, %10, %2
  %28 = load ptr, ptr %5, align 8, !tbaa !40
  %29 = icmp eq ptr %6, %28
  store i1 %29, ptr %3, align 1
  br label %30

30:                                               ; preds = %27, %25
  %31 = load i1, ptr %3, align 1
  ret i1 %31
}

; Function Attrs: mustprogress uwtable
define dso_local noundef zeroext i1 @_ZNK8Variable11loose_matchEPKS_(ptr noundef nonnull align 8 dereferenceable(200) %0, ptr noundef %1) #6 align 2 {
  %3 = alloca i1, align 1
  %4 = alloca ptr, align 8
  %5 = alloca ptr, align 8
  %6 = alloca ptr, align 8
  %7 = alloca ptr, align 8
  %8 = alloca i32, align 4
  store ptr %0, ptr %4, align 8, !tbaa !40
  store ptr %1, ptr %5, align 8, !tbaa !40
  %9 = load ptr, ptr %4, align 8
  call void @llvm.lifetime.start.p0(i64 8, ptr %6) #3
  %10 = load ptr, ptr %9, align 8, !tbaa !121
  %11 = getelementptr inbounds ptr, ptr %10, i64 8
  %12 = load ptr, ptr %11, align 8
  %13 = call noundef ptr %12(ptr noundef nonnull align 8 dereferenceable(200) %9)
  store ptr %13, ptr %6, align 8, !tbaa !40
  call void @llvm.lifetime.start.p0(i64 8, ptr %7) #3
  %14 = load ptr, ptr %5, align 8, !tbaa !40
  %15 = load ptr, ptr %14, align 8, !tbaa !121
  %16 = getelementptr inbounds ptr, ptr %15, i64 8
  %17 = load ptr, ptr %16, align 8
  %18 = call noundef ptr %17(ptr noundef nonnull align 8 dereferenceable(200) %14)
  store ptr %18, ptr %7, align 8, !tbaa !40
  %19 = load ptr, ptr %6, align 8, !tbaa !40
  %20 = load ptr, ptr %7, align 8, !tbaa !40
  %21 = call noundef zeroext i1 @_ZNK8Variable5matchEPKS_(ptr noundef nonnull align 8 dereferenceable(200) %19, ptr noundef %20)
  br i1 %21, label %22, label %23

22:                                               ; preds = %2
  store i1 true, ptr %3, align 1
  store i32 1, ptr %8, align 4
  br label %39

23:                                               ; preds = %2
  %24 = load ptr, ptr %6, align 8, !tbaa !40
  %25 = call noundef ptr @_ZNK8Variable19get_container_unionEv(ptr noundef nonnull align 8 dereferenceable(200) %24)
  store ptr %25, ptr %6, align 8, !tbaa !40
  %26 = load ptr, ptr %7, align 8, !tbaa !40
  %27 = call noundef ptr @_ZNK8Variable19get_container_unionEv(ptr noundef nonnull align 8 dereferenceable(200) %26)
  store ptr %27, ptr %7, align 8, !tbaa !40
  %28 = load ptr, ptr %7, align 8, !tbaa !40
  %29 = icmp ne ptr %28, null
  br i1 %29, label %30, label %37

30:                                               ; preds = %23
  %31 = load ptr, ptr %6, align 8, !tbaa !40
  %32 = icmp ne ptr %31, null
  br i1 %32, label %33, label %37

33:                                               ; preds = %30
  %34 = load ptr, ptr %7, align 8, !tbaa !40
  %35 = load ptr, ptr %6, align 8, !tbaa !40
  %36 = icmp eq ptr %34, %35
  br label %37

37:                                               ; preds = %33, %30, %23
  %38 = phi i1 [ false, %30 ], [ false, %23 ], [ %36, %33 ]
  store i1 %38, ptr %3, align 1
  store i32 1, ptr %8, align 4
  br label %39

39:                                               ; preds = %37, %22
  call void @llvm.lifetime.end.p0(i64 8, ptr %7) #3
  call void @llvm.lifetime.end.p0(i64 8, ptr %6) #3
  %40 = load i1, ptr %3, align 1
  ret i1 %40
}