; Function Attrs: mustprogress uwtable
define dso_local noundef zeroext i1 @_ZNK8Variable11loose_matchEPKS_(ptr noundef nonnull align 8 dereferenceable(200) %0, ptr noundef %1) local_unnamed_addr #5 align 2 {
  %3 = load ptr, ptr %0, align 8, !tbaa !97
  %4 = getelementptr inbounds nuw i8, ptr %3, i64 64
  %5 = load ptr, ptr %4, align 8
  %6 = tail call noundef ptr %5(ptr noundef nonnull align 8 dereferenceable(200) %0)
  %7 = load ptr, ptr %1, align 8, !tbaa !97
  %8 = getelementptr inbounds nuw i8, ptr %7, i64 64
  %9 = load ptr, ptr %8, align 8
  %10 = tail call noundef ptr %9(ptr noundef nonnull align 8 dereferenceable(200) %1)
  %11 = getelementptr inbounds nuw i8, ptr %6, i64 64
  %12 = load ptr, ptr %11, align 8, !tbaa !39
  %.not.i = icmp eq ptr %12, null
  br i1 %.not.i, label %24, label %13

13:                                               ; preds = %2
  %14 = getelementptr inbounds nuw i8, ptr %10, i64 64
  %15 = load ptr, ptr %14, align 8, !tbaa !39
  %.not9.i = icmp eq ptr %15, null
  br i1 %.not9.i, label %24, label %16

16:                                               ; preds = %13
  %17 = load i32, ptr %12, align 8, !tbaa !57
  %18 = and i32 %17, -2
  %spec.select.i.i = icmp eq i32 %18, 2
  br i1 %spec.select.i.i, label %19, label %24

19:                                               ; preds = %16
  %20 = icmp eq ptr %6, %10
  br i1 %20, label %_ZNK8Variable5matchEPKS_.exit.thread, label %.lr.ph.i.i

.lr.ph.i.i:                                       ; preds = %19, %.lr.ph.i.i
  %.0611.i.i = phi ptr [ %22, %.lr.ph.i.i ], [ %10, %19 ]
  %21 = getelementptr inbounds nuw i8, ptr %.0611.i.i, i64 88
  %22 = load ptr, ptr %21, align 8, !tbaa !80
  %.not.i.i = icmp ne ptr %22, null
  %23 = icmp ne ptr %22, %6
  %or.cond.not.i.i = and i1 %23, %.not.i.i
  br i1 %or.cond.not.i.i, label %.lr.ph.i.i, label %_ZNK8Variable5matchEPKS_.exit, !llvm.loop !81

24:                                               ; preds = %16, %13, %2
  %25 = icmp eq ptr %6, %10
  br i1 %25, label %_ZNK8Variable5matchEPKS_.exit.thread, label %26

_ZNK8Variable5matchEPKS_.exit:                    ; preds = %.lr.ph.i.i
  br i1 %.not.i.i, label %_ZNK8Variable5matchEPKS_.exit.thread, label %26

26:                                               ; preds = %24, %_ZNK8Variable5matchEPKS_.exit
  br i1 %.not.i, label %_ZNK8Variable19get_container_unionEv.exit, label %.preheader.i

.preheader.i:                                     ; preds = %26, %30
  %.08.i = phi ptr [ %32, %30 ], [ %6, %26 ]
  %27 = getelementptr inbounds nuw i8, ptr %.08.i, i64 64
  %28 = load ptr, ptr %27, align 8, !tbaa !39
  %29 = load i32, ptr %28, align 8, !tbaa !57
  %.not7.i = icmp eq i32 %29, 2
  br i1 %.not7.i, label %_ZNK8Variable19get_container_unionEv.exit, label %30

30:                                               ; preds = %.preheader.i
  %31 = getelementptr inbounds nuw i8, ptr %.08.i, i64 88
  %32 = load ptr, ptr %31, align 8, !tbaa !80
  %.not.i14 = icmp eq ptr %32, null
  br i1 %.not.i14, label %_ZNK8Variable19get_container_unionEv.exit, label %.preheader.i, !llvm.loop !96

_ZNK8Variable19get_container_unionEv.exit:        ; preds = %.preheader.i, %30, %26
  %.06.i = phi ptr [ null, %26 ], [ null, %30 ], [ %.08.i, %.preheader.i ]
  %33 = getelementptr inbounds nuw i8, ptr %10, i64 64
  %34 = load ptr, ptr %33, align 8, !tbaa !39
  %35 = icmp eq ptr %34, null
  br i1 %35, label %_ZNK8Variable19get_container_unionEv.exit20, label %.preheader.i15

.preheader.i15:                                   ; preds = %_ZNK8Variable19get_container_unionEv.exit, %39
  %.08.i16 = phi ptr [ %41, %39 ], [ %10, %_ZNK8Variable19get_container_unionEv.exit ]
  %36 = getelementptr inbounds nuw i8, ptr %.08.i16, i64 64
  %37 = load ptr, ptr %36, align 8, !tbaa !39
  %38 = load i32, ptr %37, align 8, !tbaa !57
  %.not7.i17 = icmp eq i32 %38, 2
  br i1 %.not7.i17, label %_ZNK8Variable19get_container_unionEv.exit20, label %39

39:                                               ; preds = %.preheader.i15
  %40 = getelementptr inbounds nuw i8, ptr %.08.i16, i64 88
  %41 = load ptr, ptr %40, align 8, !tbaa !80
  %.not.i18 = icmp eq ptr %41, null
  br i1 %.not.i18, label %_ZNK8Variable19get_container_unionEv.exit20, label %.preheader.i15, !llvm.loop !96

_ZNK8Variable19get_container_unionEv.exit20:      ; preds = %.preheader.i15, %39, %_ZNK8Variable19get_container_unionEv.exit
  %.06.i19 = phi ptr [ null, %_ZNK8Variable19get_container_unionEv.exit ], [ null, %39 ], [ %.08.i16, %.preheader.i15 ]
  %42 = icmp ne ptr %.06.i19, null
  %43 = icmp ne ptr %.06.i, null
  %or.cond = and i1 %43, %42
  %44 = icmp eq ptr %.06.i19, %.06.i
  %spec.select = and i1 %44, %or.cond
  br label %_ZNK8Variable5matchEPKS_.exit.thread

_ZNK8Variable5matchEPKS_.exit.thread:             ; preds = %19, %24, %_ZNK8Variable5matchEPKS_.exit, %_ZNK8Variable19get_container_unionEv.exit20
  %.0 = phi i1 [ %spec.select, %_ZNK8Variable19get_container_unionEv.exit20 ], [ true, %_ZNK8Variable5matchEPKS_.exit ], [ true, %24 ], [ true, %19 ]
  ret i1 %.0
}